target datalayout = "e-m:e-p270:32:32-p271:32:32-p272:64:64-i64:64-i128:128-f80:128-n8:16:32:64-S128"
target triple = "x86_64-pc-linux-gnu"

%struct.ISzAlloc = type { ptr, ptr }
%struct.CLI_LZMA = type { %struct.CLzmaDec, [5 x i8], i32, i32, i32, i32, i64, ptr, ptr, i64, i64 }
%struct.CLzmaDec = type { %struct._CLzmaProps, ptr, ptr, ptr, i32, i32, i64, i64, i32, i32, i32, [4 x i32], i32, i32, i32, i32, i32, [20 x i8] }
%struct._CLzmaProps = type { i32, i32, i32, i32 }

@g_Alloc = internal global %struct.ISzAlloc { ptr @__lzma_wrap_alloc, ptr @__lzma_wrap_free }, align 8

; Function Attrs: nounwind uwtable
define void @cli_LzmaShutdown(ptr noundef %0) #0 {
  %2 = alloca ptr, align 8
  store ptr %0, ptr %2, align 8
  %3 = load ptr, ptr %2, align 8
  %4 = getelementptr inbounds %struct.CLI_LZMA, ptr %3, i32 0, i32 4
  %5 = load i32, ptr %4, align 8
  %6 = icmp ne i32 %5, 0
  br i1 %6, label %7, label %10

7:                                                ; preds = %1
  %8 = load ptr, ptr %2, align 8
  %9 = getelementptr inbounds %struct.CLI_LZMA, ptr %8, i32 0, i32 0
  call void @LzmaDec_Free(ptr noundef %9, ptr noundef @g_Alloc)
  br label %10

10:                                               ; preds = %7, %1
  ret void
}