; Function Attrs: nounwind uwtable
define void @cli_LzmaShutdown(ptr noundef %0) local_unnamed_addr #0 {
  %2 = getelementptr inbounds i8, ptr %0, i64 152
  %3 = load i32, ptr %2, align 8
  %.not = icmp eq i32 %3, 0
  br i1 %.not, label %5, label %4

4:                                                ; preds = %1
  tail call void @LzmaDec_Free(ptr noundef nonnull %0, ptr noundef nonnull @g_Alloc) #6
  br label %5

5:                                                ; preds = %4, %1
  ret void
}